Certificate:
    Data:
        Version: 3 (0x2)
        Serial Number: 3 (0x3)
    Signature Algorithm: sha1WithRSAEncryption
        Issuer: C=FR, ST=Some-State, L=Toulouse, O=Internet Widgits Pty Ltd
        Validity
            Not Before: Jul 18 08:00:16 2018 GMT
            Not After : Jul 18 08:00:16 2019 GMT
        Subject: C=FR, ST=SomeState, L=Toulouse, O=Cheese, CN=*.cheese.org
        Subject Public Key Info:
            Public Key Algorithm: rsaEncryption
                Public-Key: (2048 bit)
                Modulus:
                    00:a6:1f:96:7c:c1:cc:b8:1c:b5:91:5d:b8:bf:70:
                    bc:f7:b8:04:4f:2a:42:de:ea:c5:c3:19:0b:03:04:
                    ec:ef:a1:24:25:de:ad:05:e7:26:ea:89:6c:59:60:
                    10:18:0c:73:f1:bf:d3:cc:7b:ed:6b:9c:ea:1d:88:
                    e2:ee:14:81:d7:07:ee:87:95:3d:36:df:9c:38:b7:
                    7b:1e:2b:51:9c:4a:1f:d0:cc:5b:af:5d:6c:5c:35:
                    49:32:e4:01:5b:f9:8c:71:cf:62:48:5a:ea:b7:31:
                    58:e2:c6:d0:5b:1c:50:b5:5c:6d:5a:6f:da:41:5e:
                    d5:4c:6e:1a:21:f3:40:f9:9e:52:76:50:25:3e:03:
                    9b:87:19:48:5b:47:87:d3:67:c6:25:69:77:29:8e:
                    56:97:45:d9:6f:64:a8:4e:ad:35:75:2e:fc:6a:2e:
                    47:87:76:fc:4e:3e:44:e9:16:b2:c7:f0:23:98:13:
                    a2:df:15:23:cb:0c:3d:fd:48:5e:c7:2c:86:70:63:
                    8b:c6:c8:89:17:52:d5:a7:8e:cb:4e:11:9d:69:8e:
                    8e:59:cc:7e:a3:bd:a1:11:88:d7:cf:7b:8c:19:46:
                    9c:1b:7a:c9:39:81:4c:58:08:1f:c7:ce:b0:0e:79:
                    64:d3:11:72:65:e6:dd:bd:00:7f:22:30:46:9b:66:
                    9c:b9
                Exponent: 65537 (0x10001)
        X509v3 extensions:
            X509v3 Basic Constraints: 
                CA:FALSE
            X509v3 Subject Alternative Name: 
                DNS:*.cheese.org, DNS:*.cheese.net, DNS:cheese.in, IP Address:10.0.1.0, IP Address:10.0.1.2, email:test@cheese.org, email:test@cheese.net
            X509v3 Subject Key Identifier: 
                AB:6B:89:25:11:FC:5E:7B:D4:B0:F7:D4:B6:D9:EB:D0:30:93:E5:58
    Signature Algorithm: sha1WithRSAEncryption
         ad:87:84:a0:88:a3:4c:d9:0a:c0:14:e4:2d:9a:1d:bb:57:b7:
         12:ef:3a:fb:8b:b2:ce:32:b8:04:e6:59:c8:4f:14:6a:b5:12:
         46:e9:c9:0a:11:64:ea:a1:86:20:96:0e:a7:40:e3:aa:e5:98:
         91:36:89:77:b6:b9:73:7e:1a:58:19:ae:d1:14:83:1e:c1:5f:
         a5:a0:32:bb:52:68:b4:8d:a3:1d:b3:08:d7:45:6e:3b:87:64:
         7e:ef:46:e6:6f:d5:79:d7:1d:57:68:67:d8:18:39:61:5b:8b:
         1a:7f:88:da:0a:51:9b:3d:6c:5d:b1:cf:b7:e9:1e:06:65:8e:
         96:d3:61:96:f8:a2:61:f9:40:5e:fa:bc:76:b9:64:0e:6f:90:
         37:de:ac:6d:7f:36:84:35:19:88:8c:26:af:3e:c3:6a:1a:03:
         ed:d7:90:89:ed:18:4c:9e:94:1f:d8:ae:6c:61:36:17:72:f9:
         bb:de:0a:56:9a:79:b4:7d:4a:9d:cb:4a:7d:71:9f:38:e7:8d:
         f0:87:24:21:0a:24:1f:82:9a:6b:67:ce:7d:af:cb:91:6b:8a:
         de:e6:d8:6f:a1:37:b9:2d:d0:cb:e8:4e:f4:43:af:ad:90:13:
         7d:61:7a:ce:86:48:fc:00:8c:37:fb:e0:31:6b:e2:18:ad:fd:
         1e:df:08:db
-----BEGIN CERTIFICATE-----
MIIDvTCCAqWgAwIBAgIBAzANBgkqhkiG9w0BAQUFADBYMQswCQYDVQQGEwJGUjET
MBEGA1UECAwKU29tZS1TdGF0ZTERMA8GA1UEBwwIVG91bG91c2UxITAfBgNVBAoM
GEludGVybmV0IFdpZGdpdHMgUHR5IEx0ZDAeFw0xODA3MTgwODAwMTZaFw0xOTA3
MTgwODAwMTZaMFwxCzAJBgNVBAYTAkZSMRIwEAYDVQQIDAlTb21lU3RhdGUxETAP
BgNVBAcMCFRvdWxvdXNlMQ8wDQYDVQQKDAZDaGVlc2UxFTATBgNVBAMMDCouY2hl
ZXNlLm9yZzCCASIwDQYJKoZIhvcNAQEBBQADggEPADCCAQoCggEBAKYflnzBzLgc
tZFduL9wvPe4BE8qQt7qxcMZCwME7O+hJCXerQXnJuqJbFlgEBgMc/G/08x77Wuc
6h2I4u4UgdcH7oeVPTbfnDi3ex4rUZxKH9DMW69dbFw1STLkAVv5jHHPYkha6rcx
WOLG0FscULVcbVpv2kFe1UxuGiHzQPmeUnZQJT4Dm4cZSFtHh9NnxiVpdymOVpdF
2W9kqE6tNXUu/GouR4d2/E4+ROkWssfwI5gTot8VI8sMPf1IXscshnBji8bIiRdS
1aeOy04RnWmOjlnMfqO9oRGI1897jBlGnBt6yTmBTFgIH8fOsA55ZNMRcmXm3b0A
fyIwRptmnLkCAwEAAaOBjTCBijAJBgNVHRMEAjAAMF4GA1UdEQRXMFWCDCouY2hl
ZXNlLm9yZ4IMKi5jaGVlc2UubmV0ggljaGVlc2UuaW6HBAoAAQCHBAoAAQKBD3Rl
c3RAY2hlZXNlLm9yZ4EPdGVzdEBjaGVlc2UubmV0MB0GA1UdDgQWBBSra4klEfxe
e9Sw99S22evQMJPlWDANBgkqhkiG9w0BAQUFAAOCAQEArYeEoIijTNkKwBTkLZod
u1e3Eu86+4uyzjK4BOZZyE8UarUSRunJChFk6qGGIJYOp0DjquWYkTaJd7a5c34a
WBmu0RSDHsFfpaAyu1JotI2jHbMI10VuO4dkfu9G5m/VedcdV2hn2Bg5YVuLGn+I
2gpRmz1sXbHPt+keBmWOltNhlviiYflAXvq8drlkDm+QN96sbX82hDUZiIwmrz7D
ahoD7deQie0YTJ6UH9iubGE2F3L5u94KVpp5tH1KnctKfXGfOOeN8IckIQokH4Ka
a2fOfa/LkWuK3ubYb6E3uS3Qy+hO9EOvrZATfWF6zoZI/ACMN/vgMWviGK39Ht8I
2w==
-----END CERTIFICATE-----
